target datalayout = "e-m:e-p270:32:32-p271:32:32-p272:64:64-i64:64-i128:128-f80:128-n8:16:32:64-S128"
target triple = "x86_64-pc-linux-gnu"

%struct.Gia_Man_t_ = type { ptr, ptr, i32, i32, i32, i32, ptr, ptr, i32, i32, i32, ptr, ptr, %struct.Vec_Int_t_, %struct.Vec_Int_t_, i32, i32, i32, %struct.Vec_Int_t_, ptr, ptr, ptr, i32, i32, i32, i32, ptr, ptr, ptr, ptr, ptr, i32, i32, ptr, i32, ptr, ptr, ptr, ptr, ptr, ptr, ptr, ptr, ptr, ptr, ptr, ptr, ptr, ptr, ptr, ptr, ptr, ptr, %struct.Vec_Int_t_, %struct.Vec_Int_t_, ptr, ptr, ptr, ptr, ptr, ptr, ptr, ptr, ptr, ptr, ptr, ptr, ptr, ptr, ptr, ptr, ptr, ptr, ptr, ptr, ptr, i32, float, float, ptr, ptr, i32, ptr, ptr, ptr, ptr, ptr, ptr, ptr, ptr, ptr, ptr, ptr, ptr, ptr, ptr, ptr, i64, i64, ptr, ptr, i32, i32, i32, i32, i32, i32, i32, i32, i32, i32, i32, i32, ptr, ptr, ptr, ptr, ptr, ptr, ptr, ptr, i32, i32, i32, ptr, i32, i32, ptr, ptr, ptr, ptr, ptr, ptr, i32, i32, ptr, %struct.Vec_Int_t_, %struct.Vec_Int_t_, %struct.Vec_Int_t_, ptr, ptr, ptr, i32, i32, i32, i32, ptr, ptr, ptr, ptr, ptr }
%struct.Vec_Int_t_ = type { i32, i32, ptr }
%struct.Gia_Obj_t_ = type <{ i64, i32 }>

; Function Attrs: inlinehint nounwind uwtable
define internal ptr @Gia_ManObj(ptr noundef %0, i32 noundef %1) #2 {
  %3 = alloca ptr, align 8
  %4 = alloca i32, align 4
  store ptr %0, ptr %3, align 8, !tbaa !3
  store i32 %1, ptr %4, align 4, !tbaa !30
  %5 = load ptr, ptr %3, align 8, !tbaa !3
  %6 = getelementptr inbounds nuw %struct.Gia_Man_t_, ptr %5, i32 0, i32 6
  %7 = load ptr, ptr %6, align 8, !tbaa !35
  %8 = load i32, ptr %4, align 4, !tbaa !30
  %9 = sext i32 %8 to i64
  %10 = getelementptr inbounds %struct.Gia_Obj_t_, ptr %7, i64 %9
  ret ptr %10
}

; Function Attrs: inlinehint nounwind uwtable
define internal i32 @Abc_Lit2Var(i32 noundef %0) #2 {
  %2 = alloca i32, align 4
  store i32 %0, ptr %2, align 4, !tbaa !30
  %3 = load i32, ptr %2, align 4, !tbaa !30
  %4 = ashr i32 %3, 1
  ret i32 %4
}

; Function Attrs: inlinehint nounwind uwtable
define internal ptr @Gia_ObjFanin2(ptr noundef %0, ptr noundef %1) #2 {
  %3 = alloca ptr, align 8
  %4 = alloca ptr, align 8
  store ptr %0, ptr %3, align 8, !tbaa !3
  store ptr %1, ptr %4, align 8, !tbaa !32
  %5 = load ptr, ptr %3, align 8, !tbaa !3
  %6 = getelementptr inbounds nuw %struct.Gia_Man_t_, ptr %5, i32 0, i32 7
  %7 = load ptr, ptr %6, align 8, !tbaa !51
  %8 = icmp ne ptr %7, null
  br i1 %8, label %9, label %22

9:                                                ; preds = %2
  %10 = load ptr, ptr %3, align 8, !tbaa !3
  %11 = load ptr, ptr %3, align 8, !tbaa !3
  %12 = getelementptr inbounds nuw %struct.Gia_Man_t_, ptr %11, i32 0, i32 7
  %13 = load ptr, ptr %12, align 8, !tbaa !51
  %14 = load ptr, ptr %3, align 8, !tbaa !3
  %15 = load ptr, ptr %4, align 8, !tbaa !32
  %16 = call i32 @Gia_ObjId(ptr noundef %14, ptr noundef %15)
  %17 = sext i32 %16 to i64
  %18 = getelementptr inbounds i32, ptr %13, i64 %17
  %19 = load i32, ptr %18, align 4, !tbaa !30
  %20 = call i32 @Abc_Lit2Var(i32 noundef %19)
  %21 = call ptr @Gia_ManObj(ptr noundef %10, i32 noundef %20)
  br label %23

22:                                               ; preds = %2
  br label %23

23:                                               ; preds = %22, %9
  %24 = phi ptr [ %21, %9 ], [ null, %22 ]
  ret ptr %24
}

; Function Attrs: inlinehint nounwind uwtable
define internal ptr @Gia_ObjFanin1(ptr noundef %0) #2 {
  %2 = alloca ptr, align 8
  store ptr %0, ptr %2, align 8, !tbaa !32
  %3 = load ptr, ptr %2, align 8, !tbaa !32
  %4 = load ptr, ptr %2, align 8, !tbaa !32
  %5 = load i64, ptr %4, align 4
  %6 = lshr i64 %5, 32
  %7 = and i64 %6, 536870911
  %8 = trunc i64 %7 to i32
  %9 = sext i32 %8 to i64
  %10 = sub i64 0, %9
  %11 = getelementptr inbounds %struct.Gia_Obj_t_, ptr %3, i64 %10
  ret ptr %11
}

; Function Attrs: inlinehint nounwind uwtable
define internal ptr @Gia_ObjFanin0(ptr noundef %0) #2 {
  %2 = alloca ptr, align 8
  store ptr %0, ptr %2, align 8, !tbaa !32
  %3 = load ptr, ptr %2, align 8, !tbaa !32
  %4 = load ptr, ptr %2, align 8, !tbaa !32
  %5 = load i64, ptr %4, align 4
  %6 = and i64 %5, 536870911
  %7 = trunc i64 %6 to i32
  %8 = sext i32 %7 to i64
  %9 = sub i64 0, %8
  %10 = getelementptr inbounds %struct.Gia_Obj_t_, ptr %3, i64 %9
  ret ptr %10
}

; Function Attrs: inlinehint nounwind uwtable
define internal ptr @Gia_FanoutObj(ptr noundef %0, i32 noundef %1) #2 {
  %3 = alloca ptr, align 8
  %4 = alloca i32, align 4
  store ptr %0, ptr %3, align 8, !tbaa !36
  store i32 %1, ptr %4, align 4, !tbaa !30
  %5 = load ptr, ptr %3, align 8, !tbaa !36
  %6 = load i32, ptr %4, align 4, !tbaa !30
  %7 = mul nsw i32 5, %6
  %8 = sext i32 %7 to i64
  %9 = getelementptr inbounds i32, ptr %5, i64 %8
  ret ptr %9
}

; Function Attrs: inlinehint nounwind uwtable
define internal ptr @Gia_FanoutNext(ptr noundef %0, i32 noundef %1) #2 {
  %3 = alloca ptr, align 8
  %4 = alloca i32, align 4
  store ptr %0, ptr %3, align 8, !tbaa !36
  store i32 %1, ptr %4, align 4, !tbaa !30
  %5 = load ptr, ptr %3, align 8, !tbaa !36
  %6 = load i32, ptr %4, align 4, !tbaa !30
  %7 = ashr i32 %6, 1
  %8 = mul nsw i32 5, %7
  %9 = sext i32 %8 to i64
  %10 = getelementptr inbounds i32, ptr %5, i64 %9
  %11 = getelementptr inbounds i32, ptr %10, i64 3
  %12 = load i32, ptr %4, align 4, !tbaa !30
  %13 = and i32 %12, 1
  %14 = sext i32 %13 to i64
  %15 = getelementptr inbounds i32, ptr %11, i64 %14
  ret ptr %15
}

; Function Attrs: inlinehint nounwind uwtable
define internal ptr @Gia_FanoutPrev(ptr noundef %0, i32 noundef %1) #2 {
  %3 = alloca ptr, align 8
  %4 = alloca i32, align 4
  store ptr %0, ptr %3, align 8, !tbaa !36
  store i32 %1, ptr %4, align 4, !tbaa !30
  %5 = load ptr, ptr %3, align 8, !tbaa !36
  %6 = load i32, ptr %4, align 4, !tbaa !30
  %7 = ashr i32 %6, 1
  %8 = mul nsw i32 5, %7
  %9 = sext i32 %8 to i64
  %10 = getelementptr inbounds i32, ptr %5, i64 %9
  %11 = getelementptr inbounds i32, ptr %10, i64 1
  %12 = load i32, ptr %4, align 4, !tbaa !30
  %13 = and i32 %12, 1
  %14 = sext i32 %13 to i64
  %15 = getelementptr inbounds i32, ptr %11, i64 %14
  ret ptr %15
}

; Function Attrs: inlinehint nounwind uwtable
define internal i32 @Gia_FanoutCreate(i32 noundef %0, i32 noundef %1) #2 {
  %3 = alloca i32, align 4
  %4 = alloca i32, align 4
  store i32 %0, ptr %3, align 4, !tbaa !30
  store i32 %1, ptr %4, align 4, !tbaa !30
  %5 = load i32, ptr %3, align 4, !tbaa !30
  %6 = shl i32 %5, 1
  %7 = load i32, ptr %4, align 4, !tbaa !30
  %8 = or i32 %6, %7
  ret i32 %8
}

; Function Attrs: inlinehint nounwind uwtable
define internal i32 @Gia_ObjWhatFanin(ptr noundef %0, ptr noundef %1, ptr noundef %2) #2 {
  %4 = alloca i32, align 4
  %5 = alloca ptr, align 8
  %6 = alloca ptr, align 8
  %7 = alloca ptr, align 8
  store ptr %0, ptr %5, align 8, !tbaa !3
  store ptr %1, ptr %6, align 8, !tbaa !32
  store ptr %2, ptr %7, align 8, !tbaa !32
  %8 = load ptr, ptr %6, align 8, !tbaa !32
  %9 = call ptr @Gia_ObjFanin0(ptr noundef %8)
  %10 = load ptr, ptr %7, align 8, !tbaa !32
  %11 = icmp eq ptr %9, %10
  br i1 %11, label %12, label %13

12:                                               ; preds = %3
  store i32 0, ptr %4, align 4
  br label %27

13:                                               ; preds = %3
  %14 = load ptr, ptr %6, align 8, !tbaa !32
  %15 = call ptr @Gia_ObjFanin1(ptr noundef %14)
  %16 = load ptr, ptr %7, align 8, !tbaa !32
  %17 = icmp eq ptr %15, %16
  br i1 %17, label %18, label %19

18:                                               ; preds = %13
  store i32 1, ptr %4, align 4
  br label %27

19:                                               ; preds = %13
  %20 = load ptr, ptr %5, align 8, !tbaa !3
  %21 = load ptr, ptr %6, align 8, !tbaa !32
  %22 = call ptr @Gia_ObjFanin2(ptr noundef %20, ptr noundef %21)
  %23 = load ptr, ptr %7, align 8, !tbaa !32
  %24 = icmp eq ptr %22, %23
  br i1 %24, label %25, label %26

25:                                               ; preds = %19
  store i32 2, ptr %4, align 4
  br label %27

26:                                               ; preds = %19
  store i32 -1, ptr %4, align 4
  br label %27

27:                                               ; preds = %26, %25, %18, %12
  %28 = load i32, ptr %4, align 4
  ret i32 %28
}

; Function Attrs: inlinehint nounwind uwtable
define internal i32 @Gia_ObjId(ptr noundef %0, ptr noundef %1) #2 {
  %3 = alloca ptr, align 8
  %4 = alloca ptr, align 8
  store ptr %0, ptr %3, align 8, !tbaa !3
  store ptr %1, ptr %4, align 8, !tbaa !32
  %5 = load ptr, ptr %4, align 8, !tbaa !32
  %6 = load ptr, ptr %3, align 8, !tbaa !3
  %7 = getelementptr inbounds nuw %struct.Gia_Man_t_, ptr %6, i32 0, i32 6
  %8 = load ptr, ptr %7, align 8, !tbaa !35
  %9 = ptrtoint ptr %5 to i64
  %10 = ptrtoint ptr %8 to i64
  %11 = sub i64 %9, %10
  %12 = sdiv exact i64 %11, 12
  %13 = trunc i64 %12 to i32
  ret i32 %13
}

; Function Attrs: nounwind uwtable
define void @Gia_ObjRemoveFanout(ptr noundef %0, ptr noundef %1, ptr noundef %2) #0 {
  %4 = alloca ptr, align 8
  %5 = alloca ptr, align 8
  %6 = alloca ptr, align 8
  %7 = alloca i32, align 4
  %8 = alloca ptr, align 8
  %9 = alloca ptr, align 8
  %10 = alloca ptr, align 8
  %11 = alloca ptr, align 8
  %12 = alloca ptr, align 8
  %13 = alloca i32, align 4
  store ptr %0, ptr %4, align 8, !tbaa !3
  store ptr %1, ptr %5, align 8, !tbaa !32
  store ptr %2, ptr %6, align 8, !tbaa !32
  call void @llvm.lifetime.start.p0(i64 4, ptr %7) #8
  call void @llvm.lifetime.start.p0(i64 8, ptr %8) #8
  call void @llvm.lifetime.start.p0(i64 8, ptr %9) #8
  call void @llvm.lifetime.start.p0(i64 8, ptr %10) #8
  call void @llvm.lifetime.start.p0(i64 8, ptr %11) #8
  call void @llvm.lifetime.start.p0(i64 8, ptr %12) #8
  %14 = load ptr, ptr %4, align 8, !tbaa !3
  %15 = load ptr, ptr %6, align 8, !tbaa !32
  %16 = call i32 @Gia_ObjId(ptr noundef %14, ptr noundef %15)
  %17 = load ptr, ptr %4, align 8, !tbaa !3
  %18 = load ptr, ptr %6, align 8, !tbaa !32
  %19 = load ptr, ptr %5, align 8, !tbaa !32
  %20 = call i32 @Gia_ObjWhatFanin(ptr noundef %17, ptr noundef %18, ptr noundef %19)
  %21 = call i32 @Gia_FanoutCreate(i32 noundef %16, i32 noundef %20)
  store i32 %21, ptr %7, align 4, !tbaa !30
  %22 = load ptr, ptr %4, align 8, !tbaa !3
  %23 = getelementptr inbounds nuw %struct.Gia_Man_t_, ptr %22, i32 0, i32 33
  %24 = load ptr, ptr %23, align 8, !tbaa !29
  %25 = load i32, ptr %7, align 4, !tbaa !30
  %26 = call ptr @Gia_FanoutPrev(ptr noundef %24, i32 noundef %25)
  store ptr %26, ptr %9, align 8, !tbaa !36
  %27 = load ptr, ptr %4, align 8, !tbaa !3
  %28 = getelementptr inbounds nuw %struct.Gia_Man_t_, ptr %27, i32 0, i32 33
  %29 = load ptr, ptr %28, align 8, !tbaa !29
  %30 = load i32, ptr %7, align 4, !tbaa !30
  %31 = call ptr @Gia_FanoutNext(ptr noundef %29, i32 noundef %30)
  store ptr %31, ptr %10, align 8, !tbaa !36
  %32 = load ptr, ptr %4, align 8, !tbaa !3
  %33 = getelementptr inbounds nuw %struct.Gia_Man_t_, ptr %32, i32 0, i32 33
  %34 = load ptr, ptr %33, align 8, !tbaa !29
  %35 = load ptr, ptr %10, align 8, !tbaa !36
  %36 = load i32, ptr %35, align 4, !tbaa !30
  %37 = call ptr @Gia_FanoutPrev(ptr noundef %34, i32 noundef %36)
  store ptr %37, ptr %11, align 8, !tbaa !36
  %38 = load ptr, ptr %4, align 8, !tbaa !3
  %39 = getelementptr inbounds nuw %struct.Gia_Man_t_, ptr %38, i32 0, i32 33
  %40 = load ptr, ptr %39, align 8, !tbaa !29
  %41 = load ptr, ptr %9, align 8, !tbaa !36
  %42 = load i32, ptr %41, align 4, !tbaa !30
  %43 = call ptr @Gia_FanoutNext(ptr noundef %40, i32 noundef %42)
  store ptr %43, ptr %12, align 8, !tbaa !36
  %44 = load ptr, ptr %4, align 8, !tbaa !3
  %45 = getelementptr inbounds nuw %struct.Gia_Man_t_, ptr %44, i32 0, i32 33
  %46 = load ptr, ptr %45, align 8, !tbaa !29
  %47 = load ptr, ptr %4, align 8, !tbaa !3
  %48 = load ptr, ptr %5, align 8, !tbaa !32
  %49 = call i32 @Gia_ObjId(ptr noundef %47, ptr noundef %48)
  %50 = call ptr @Gia_FanoutObj(ptr noundef %46, i32 noundef %49)
  store ptr %50, ptr %8, align 8, !tbaa !36
  %51 = load ptr, ptr %8, align 8, !tbaa !36
  %52 = load i32, ptr %51, align 4, !tbaa !30
  %53 = load i32, ptr %7, align 4, !tbaa !30
  %54 = icmp eq i32 %52, %53
  br i1 %54, label %55, label %70

55:                                               ; preds = %3
  %56 = load ptr, ptr %10, align 8, !tbaa !36
  %57 = load i32, ptr %56, align 4, !tbaa !30
  %58 = load i32, ptr %7, align 4, !tbaa !30
  %59 = icmp eq i32 %57, %58
  br i1 %59, label %60, label %66

60:                                               ; preds = %55
  %61 = load ptr, ptr %8, align 8, !tbaa !36
  store i32 0, ptr %61, align 4, !tbaa !30
  %62 = load ptr, ptr %11, align 8, !tbaa !36
  store i32 0, ptr %62, align 4, !tbaa !30
  %63 = load ptr, ptr %12, align 8, !tbaa !36
  store i32 0, ptr %63, align 4, !tbaa !30
  %64 = load ptr, ptr %9, align 8, !tbaa !36
  store i32 0, ptr %64, align 4, !tbaa !30
  %65 = load ptr, ptr %10, align 8, !tbaa !36
  store i32 0, ptr %65, align 4, !tbaa !30
  store i32 1, ptr %13, align 4
  br label %79

66:                                               ; preds = %55
  %67 = load ptr, ptr %10, align 8, !tbaa !36
  %68 = load i32, ptr %67, align 4, !tbaa !30
  %69 = load ptr, ptr %8, align 8, !tbaa !36
  store i32 %68, ptr %69, align 4, !tbaa !30
  br label %70

70:                                               ; preds = %66, %3
  %71 = load ptr, ptr %9, align 8, !tbaa !36
  %72 = load i32, ptr %71, align 4, !tbaa !30
  %73 = load ptr, ptr %11, align 8, !tbaa !36
  store i32 %72, ptr %73, align 4, !tbaa !30
  %74 = load ptr, ptr %10, align 8, !tbaa !36
  %75 = load i32, ptr %74, align 4, !tbaa !30
  %76 = load ptr, ptr %12, align 8, !tbaa !36
  store i32 %75, ptr %76, align 4, !tbaa !30
  %77 = load ptr, ptr %9, align 8, !tbaa !36
  store i32 0, ptr %77, align 4, !tbaa !30
  %78 = load ptr, ptr %10, align 8, !tbaa !36
  store i32 0, ptr %78, align 4, !tbaa !30
  store i32 0, ptr %13, align 4
  br label %79

79:                                               ; preds = %70, %60
  call void @llvm.lifetime.end.p0(i64 8, ptr %12) #8
  call void @llvm.lifetime.end.p0(i64 8, ptr %11) #8
  call void @llvm.lifetime.end.p0(i64 8, ptr %10) #8
  call void @llvm.lifetime.end.p0(i64 8, ptr %9) #8
  call void @llvm.lifetime.end.p0(i64 8, ptr %8) #8
  call void @llvm.lifetime.end.p0(i64 4, ptr %7) #8
  %80 = load i32, ptr %13, align 4
  switch i32 %80, label %82 [
    i32 0, label %81
    i32 1, label %81
  ]

81:                                               ; preds = %79, %79
  ret void

82:                                               ; preds = %79
  unreachable
}