; Function Attrs: mustprogress nofree norecurse nosync nounwind willreturn memory(readwrite, inaccessiblemem: none) uwtable
define void @Gia_ObjRemoveFanout(ptr noundef readonly captures(none) %0, ptr noundef %1, ptr noundef %2) local_unnamed_addr #6 {
  %4 = getelementptr i8, ptr %0, i64 32
  %.val33 = load ptr, ptr %4, align 8, !tbaa !30
  %5 = ptrtoint ptr %2 to i64
  %6 = ptrtoint ptr %.val33 to i64
  %7 = sub i64 %5, %6
  %8 = sdiv exact i64 %7, 12
  %9 = trunc i64 %8 to i32
  %10 = load i64, ptr %2, align 4
  %11 = and i64 %10, 536870911
  %12 = sub nsw i64 0, %11
  %13 = getelementptr inbounds %struct.Gia_Obj_t_, ptr %2, i64 %12
  %14 = icmp eq ptr %13, %1
  br i1 %14, label %Gia_ObjWhatFanin.exit, label %15

15:                                               ; preds = %3
  %16 = lshr i64 %10, 32
  %17 = and i64 %16, 536870911
  %18 = sub nsw i64 0, %17
  %19 = getelementptr inbounds %struct.Gia_Obj_t_, ptr %2, i64 %18
  %20 = icmp eq ptr %19, %1
  br i1 %20, label %Gia_ObjWhatFanin.exit, label %21

21:                                               ; preds = %15
  %22 = getelementptr inbounds nuw i8, ptr %0, i64 40
  %23 = load ptr, ptr %22, align 8, !tbaa !33
  %.not.i.i = icmp eq ptr %23, null
  br i1 %.not.i.i, label %Gia_ObjFanin2.exit.i, label %24

24:                                               ; preds = %21
  %sext.i.i = shl i64 %8, 32
  %25 = ashr exact i64 %sext.i.i, 30
  %26 = getelementptr inbounds i8, ptr %23, i64 %25
  %27 = load i32, ptr %26, align 4, !tbaa !34
  %28 = ashr i32 %27, 1
  %29 = sext i32 %28 to i64
  %30 = getelementptr inbounds %struct.Gia_Obj_t_, ptr %.val33, i64 %29
  br label %Gia_ObjFanin2.exit.i

Gia_ObjFanin2.exit.i:                             ; preds = %24, %21
  %31 = phi ptr [ %30, %24 ], [ null, %21 ]
  %32 = icmp eq ptr %31, %1
  %..i = select i1 %32, i32 2, i32 -1
  br label %Gia_ObjWhatFanin.exit

Gia_ObjWhatFanin.exit:                            ; preds = %3, %15, %Gia_ObjFanin2.exit.i
  %.0.i = phi i32 [ 0, %3 ], [ 1, %15 ], [ %..i, %Gia_ObjFanin2.exit.i ]
  %33 = shl i32 %9, 1
  %34 = or i32 %.0.i, %33
  %35 = getelementptr inbounds nuw i8, ptr %0, i64 232
  %36 = load ptr, ptr %35, align 8, !tbaa !29
  %37 = ashr i32 %34, 1
  %38 = mul nsw i32 %37, 5
  %39 = sext i32 %38 to i64
  %40 = getelementptr inbounds i32, ptr %36, i64 %39
  %41 = getelementptr inbounds nuw i8, ptr %40, i64 4
  %42 = and i32 %.0.i, 1
  %43 = zext nneg i32 %42 to i64
  %44 = getelementptr inbounds nuw i32, ptr %41, i64 %43
  %45 = getelementptr inbounds nuw i8, ptr %40, i64 12
  %46 = getelementptr inbounds nuw i32, ptr %45, i64 %43
  %47 = load i32, ptr %46, align 4, !tbaa !34
  %48 = ashr i32 %47, 1
  %49 = mul nsw i32 %48, 5
  %50 = sext i32 %49 to i64
  %51 = getelementptr inbounds i32, ptr %36, i64 %50
  %52 = getelementptr inbounds nuw i8, ptr %51, i64 4
  %53 = and i32 %47, 1
  %54 = zext nneg i32 %53 to i64
  %55 = getelementptr inbounds nuw i32, ptr %52, i64 %54
  %56 = load i32, ptr %44, align 4, !tbaa !34
  %57 = ptrtoint ptr %1 to i64
  %58 = sub i64 %57, %6
  %59 = sdiv exact i64 %58, 12
  %sext = mul i64 %59, 21474836480
  %60 = ashr exact i64 %sext, 30
  %61 = getelementptr inbounds i8, ptr %36, i64 %60
  %62 = load i32, ptr %61, align 4, !tbaa !34
  %63 = icmp eq i32 %62, %34
  br i1 %63, label %64, label %68

64:                                               ; preds = %Gia_ObjWhatFanin.exit
  %65 = icmp eq i32 %47, %34
  br i1 %65, label %66, label %67

66:                                               ; preds = %64
  store i32 0, ptr %61, align 4, !tbaa !34
  store i32 0, ptr %55, align 4, !tbaa !34
  br label %71

67:                                               ; preds = %64
  store i32 %47, ptr %61, align 4, !tbaa !34
  %.pre = load i32, ptr %44, align 4, !tbaa !34
  br label %68

68:                                               ; preds = %67, %Gia_ObjWhatFanin.exit
  %69 = phi i32 [ %.pre, %67 ], [ %56, %Gia_ObjWhatFanin.exit ]
  store i32 %69, ptr %55, align 4, !tbaa !34
  %70 = load i32, ptr %46, align 4, !tbaa !34
  br label %71

71:                                               ; preds = %68, %66
  %storemerge = phi i32 [ %70, %68 ], [ 0, %66 ]
  %72 = ashr i32 %56, 1
  %73 = mul nsw i32 %72, 5
  %74 = sext i32 %73 to i64
  %75 = getelementptr inbounds i32, ptr %36, i64 %74
  %76 = getelementptr inbounds nuw i8, ptr %75, i64 12
  %77 = and i32 %56, 1
  %78 = zext nneg i32 %77 to i64
  %79 = getelementptr inbounds nuw i32, ptr %76, i64 %78
  store i32 %storemerge, ptr %79, align 4, !tbaa !34
  store i32 0, ptr %44, align 4, !tbaa !34
  store i32 0, ptr %46, align 4, !tbaa !34
  ret void
}